; ModuleID = 'source-C-CXX/11/1297.cpp'
source_filename = "source-C-CXX/11/1297.cpp"
target datalayout = "e-m:e-p270:32:32-p271:32:32-p272:64:64-i64:64-f80:128-n8:16:32:64-S128"
target triple = "x86_64-pc-linux-gnu"

%"class.std::ios_base::Init" = type { i8 }
%"class.std::basic_istream" = type { i32 (...)**, i64, %"class.std::basic_ios" }
%"class.std::basic_ios" = type { %"class.std::ios_base", %"class.std::basic_ostream"*, i8, i8, %"class.std::basic_streambuf"*, %"class.std::ctype"*, %"class.std::num_put"*, %"class.std::num_get"* }
%"class.std::ios_base" = type { i32 (...)**, i64, i64, i32, i32, i32, %"struct.std::ios_base::_Callback_list"*, %"struct.std::ios_base::_Words", [8 x %"struct.std::ios_base::_Words"], i32, %"struct.std::ios_base::_Words"*, %"class.std::locale" }
%"struct.std::ios_base::_Callback_list" = type { %"struct.std::ios_base::_Callback_list"*, void (i32, %"class.std::ios_base"*, i32)*, i32, i32 }
%"struct.std::ios_base::_Words" = type { i8*, i64 }
%"class.std::locale" = type { %"class.std::locale::_Impl"* }
%"class.std::locale::_Impl" = type { i32, %"class.std::locale::facet"**, i64, %"class.std::locale::facet"**, i8** }
%"class.std::locale::facet" = type <{ i32 (...)**, i32, [4 x i8] }>
%"class.std::basic_ostream" = type { i32 (...)**, %"class.std::basic_ios" }
%"class.std::basic_streambuf" = type { i32 (...)**, i8*, i8*, i8*, i8*, i8*, i8*, %"class.std::locale" }
%"class.std::ctype" = type <{ %"class.std::locale::facet.base", [4 x i8], %struct.__locale_struct*, i8, [7 x i8], i32*, i32*, i16*, i8, [256 x i8], [256 x i8], i8, [6 x i8] }>
%"class.std::locale::facet.base" = type <{ i32 (...)**, i32 }>
%struct.__locale_struct = type { [13 x %struct.__locale_data*], i16*, i32*, i32*, [13 x i8*] }
%struct.__locale_data = type opaque
%"class.std::num_put" = type { %"class.std::locale::facet.base", [4 x i8] }
%"class.std::num_get" = type { %"class.std::locale::facet.base", [4 x i8] }

@_ZStL8__ioinit = internal global %"class.std::ios_base::Init" zeroinitializer, align 1
@__dso_handle = external hidden global i8
@_ZSt3cin = external global %"class.std::basic_istream", align 8
@_ZSt4cout = external global %"class.std::basic_ostream", align 8
@llvm.global_ctors = appending global [1 x { i32, void ()*, i8* }] [{ i32, void ()*, i8* } { i32 65535, void ()* @_GLOBAL__sub_I_1297.cpp, i8* null }]

declare void @_ZNSt8ios_base4InitC1Ev(%"class.std::ios_base::Init"* nonnull align 1 dereferenceable(1)) unnamed_addr #0

; Function Attrs: nounwind
declare void @_ZNSt8ios_base4InitD1Ev(%"class.std::ios_base::Init"* nonnull align 1 dereferenceable(1)) unnamed_addr #1

; Function Attrs: nofree nounwind
declare i32 @__cxa_atexit(void (i8*)*, i8*, i8*) local_unnamed_addr #2

; Function Attrs: mustprogress norecurse sspstrong uwtable
define dso_local i32 @main() local_unnamed_addr #3 {
  %1 = alloca i32, align 4
  %2 = alloca [16 x i32], align 16
  %3 = bitcast i32* %1 to i8*
  call void @llvm.lifetime.start.p0i8(i64 4, i8* nonnull %3) #8
  %4 = bitcast [16 x i32]* %2 to i8*
  call void @llvm.lifetime.start.p0i8(i64 64, i8* nonnull %4) #8
  %5 = call nonnull align 8 dereferenceable(16) %"class.std::basic_istream"* @_ZNSirsERi(%"class.std::basic_istream"* nonnull align 8 dereferenceable(16) @_ZSt3cin, i32* nonnull align 4 dereferenceable(4) %1)
  %6 = bitcast %"class.std::basic_istream"* %5 to i8**
  %7 = load i8*, i8** %6, align 8, !tbaa !5
  %8 = getelementptr i8, i8* %7, i64 -24
  %9 = bitcast i8* %8 to i64*
  %10 = load i64, i64* %9, align 8
  %11 = bitcast %"class.std::basic_istream"* %5 to i8*
  %12 = add nsw i64 %10, 32
  %13 = getelementptr inbounds i8, i8* %11, i64 %12
  %14 = bitcast i8* %13 to i32*
  %15 = load i32, i32* %14, align 8, !tbaa !8
  %16 = and i32 %15, 5
  %17 = icmp eq i32 %16, 0
  br i1 %17, label %18, label %154

18:                                               ; preds = %0, %139
  %19 = phi i32 [ %140, %139 ], [ 0, %0 ]
  %20 = load i32, i32* %1, align 4, !tbaa !18
  %21 = icmp eq i32 %20, 0
  br i1 %21, label %22, label %29

22:                                               ; preds = %18
  %23 = icmp sgt i32 %19, 1
  br i1 %23, label %24, label %107

24:                                               ; preds = %22
  %25 = zext i32 %19 to i64
  %26 = add nsw i32 %19, -1
  %27 = zext i32 %26 to i64
  %28 = zext i32 %19 to i64
  br label %37

29:                                               ; preds = %18
  %30 = sext i32 %19 to i64
  %31 = getelementptr inbounds [16 x i32], [16 x i32]* %2, i64 0, i64 %30
  store i32 %20, i32* %31, align 4, !tbaa !18
  %32 = add nsw i32 %19, 1
  br label %139

33:                                               ; preds = %94, %87, %37
  %34 = phi i32 [ %40, %37 ], [ %89, %87 ], [ %104, %94 ]
  %35 = add nuw nsw i64 %39, 1
  %36 = icmp eq i64 %43, %27
  br i1 %36, label %107, label %37, !llvm.loop !19

37:                                               ; preds = %24, %33
  %38 = phi i64 [ 0, %24 ], [ %43, %33 ]
  %39 = phi i64 [ 1, %24 ], [ %35, %33 ]
  %40 = phi i32 [ 0, %24 ], [ %34, %33 ]
  %41 = xor i64 %38, -1
  %42 = add nsw i64 %41, %28
  %43 = add nuw nsw i64 %38, 1
  %44 = icmp ult i64 %43, %25
  br i1 %44, label %45, label %33

45:                                               ; preds = %37
  %46 = getelementptr inbounds [16 x i32], [16 x i32]* %2, i64 0, i64 %38
  %47 = load i32, i32* %46, align 4, !tbaa !18
  %48 = shl nsw i32 %47, 1
  %49 = icmp ult i64 %42, 8
  br i1 %49, label %91, label %50

50:                                               ; preds = %45
  %51 = and i64 %42, -8
  %52 = add i64 %39, %51
  %53 = insertelement <4 x i32> <i32 poison, i32 0, i32 0, i32 0>, i32 %40, i32 0
  %54 = insertelement <4 x i32> poison, i32 %48, i32 0
  %55 = shufflevector <4 x i32> %54, <4 x i32> poison, <4 x i32> zeroinitializer
  %56 = insertelement <4 x i32> poison, i32 %48, i32 0
  %57 = shufflevector <4 x i32> %56, <4 x i32> poison, <4 x i32> zeroinitializer
  %58 = insertelement <4 x i32> poison, i32 %47, i32 0
  %59 = shufflevector <4 x i32> %58, <4 x i32> poison, <4 x i32> zeroinitializer
  %60 = insertelement <4 x i32> poison, i32 %47, i32 0
  %61 = shufflevector <4 x i32> %60, <4 x i32> poison, <4 x i32> zeroinitializer
  br label %62

62:                                               ; preds = %62, %50
  %63 = phi i64 [ 0, %50 ], [ %85, %62 ]
  %64 = phi <4 x i32> [ %53, %50 ], [ %83, %62 ]
  %65 = phi <4 x i32> [ zeroinitializer, %50 ], [ %84, %62 ]
  %66 = add i64 %39, %63
  %67 = getelementptr inbounds [16 x i32], [16 x i32]* %2, i64 0, i64 %66
  %68 = bitcast i32* %67 to <4 x i32>*
  %69 = load <4 x i32>, <4 x i32>* %68, align 4, !tbaa !18
  %70 = getelementptr inbounds i32, i32* %67, i64 4
  %71 = bitcast i32* %70 to <4 x i32>*
  %72 = load <4 x i32>, <4 x i32>* %71, align 4, !tbaa !18
  %73 = icmp eq <4 x i32> %69, %55
  %74 = icmp eq <4 x i32> %72, %57
  %75 = shl nsw <4 x i32> %69, <i32 1, i32 1, i32 1, i32 1>
  %76 = shl nsw <4 x i32> %72, <i32 1, i32 1, i32 1, i32 1>
  %77 = icmp eq <4 x i32> %59, %75
  %78 = icmp eq <4 x i32> %61, %76
  %79 = select <4 x i1> %73, <4 x i1> <i1 true, i1 true, i1 true, i1 true>, <4 x i1> %77
  %80 = select <4 x i1> %74, <4 x i1> <i1 true, i1 true, i1 true, i1 true>, <4 x i1> %78
  %81 = zext <4 x i1> %79 to <4 x i32>
  %82 = zext <4 x i1> %80 to <4 x i32>
  %83 = add <4 x i32> %64, %81
  %84 = add <4 x i32> %65, %82
  %85 = add nuw i64 %63, 8
  %86 = icmp eq i64 %85, %51
  br i1 %86, label %87, label %62, !llvm.loop !21

87:                                               ; preds = %62
  %88 = add <4 x i32> %84, %83
  %89 = call i32 @llvm.vector.reduce.add.v4i32(<4 x i32> %88)
  %90 = icmp eq i64 %42, %51
  br i1 %90, label %33, label %91

91:                                               ; preds = %45, %87
  %92 = phi i64 [ %39, %45 ], [ %52, %87 ]
  %93 = phi i32 [ %40, %45 ], [ %89, %87 ]
  br label %94

94:                                               ; preds = %91, %94
  %95 = phi i64 [ %105, %94 ], [ %92, %91 ]
  %96 = phi i32 [ %104, %94 ], [ %93, %91 ]
  %97 = getelementptr inbounds [16 x i32], [16 x i32]* %2, i64 0, i64 %95
  %98 = load i32, i32* %97, align 4, !tbaa !18
  %99 = icmp eq i32 %98, %48
  %100 = shl nsw i32 %98, 1
  %101 = icmp eq i32 %47, %100
  %102 = select i1 %99, i1 true, i1 %101
  %103 = zext i1 %102 to i32
  %104 = add nsw i32 %96, %103
  %105 = add nuw nsw i64 %95, 1
  %106 = icmp eq i64 %105, %28
  br i1 %106, label %33, label %94, !llvm.loop !23

107:                                              ; preds = %33, %22
  %108 = phi i32 [ 0, %22 ], [ %34, %33 ]
  %109 = call nonnull align 8 dereferenceable(8) %"class.std::basic_ostream"* @_ZNSolsEi(%"class.std::basic_ostream"* nonnull align 8 dereferenceable(8) @_ZSt4cout, i32 %108)
  %110 = bitcast %"class.std::basic_ostream"* %109 to i8**
  %111 = load i8*, i8** %110, align 8, !tbaa !5
  %112 = getelementptr i8, i8* %111, i64 -24
  %113 = bitcast i8* %112 to i64*
  %114 = load i64, i64* %113, align 8
  %115 = bitcast %"class.std::basic_ostream"* %109 to i8*
  %116 = add nsw i64 %114, 240
  %117 = getelementptr inbounds i8, i8* %115, i64 %116
  %118 = bitcast i8* %117 to %"class.std::ctype"**
  %119 = load %"class.std::ctype"*, %"class.std::ctype"** %118, align 8, !tbaa !25
  %120 = icmp eq %"class.std::ctype"* %119, null
  br i1 %120, label %121, label %122

121:                                              ; preds = %107
  call void @_ZSt16__throw_bad_castv() #9
  unreachable

122:                                              ; preds = %107
  %123 = getelementptr inbounds %"class.std::ctype", %"class.std::ctype"* %119, i64 0, i32 8
  %124 = load i8, i8* %123, align 8, !tbaa !28
  %125 = icmp eq i8 %124, 0
  br i1 %125, label %129, label %126

126:                                              ; preds = %122
  %127 = getelementptr inbounds %"class.std::ctype", %"class.std::ctype"* %119, i64 0, i32 9, i64 10
  %128 = load i8, i8* %127, align 1, !tbaa !30
  br label %135

129:                                              ; preds = %122
  call void @_ZNKSt5ctypeIcE13_M_widen_initEv(%"class.std::ctype"* nonnull align 8 dereferenceable(570) %119)
  %130 = bitcast %"class.std::ctype"* %119 to i8 (%"class.std::ctype"*, i8)***
  %131 = load i8 (%"class.std::ctype"*, i8)**, i8 (%"class.std::ctype"*, i8)*** %130, align 8, !tbaa !5
  %132 = getelementptr inbounds i8 (%"class.std::ctype"*, i8)*, i8 (%"class.std::ctype"*, i8)** %131, i64 6
  %133 = load i8 (%"class.std::ctype"*, i8)*, i8 (%"class.std::ctype"*, i8)** %132, align 8
  %134 = call signext i8 %133(%"class.std::ctype"* nonnull align 8 dereferenceable(570) %119, i8 signext 10)
  br label %135

135:                                              ; preds = %126, %129
  %136 = phi i8 [ %128, %126 ], [ %134, %129 ]
  %137 = call nonnull align 8 dereferenceable(8) %"class.std::basic_ostream"* @_ZNSo3putEc(%"class.std::basic_ostream"* nonnull align 8 dereferenceable(8) %109, i8 signext %136)
  %138 = call nonnull align 8 dereferenceable(8) %"class.std::basic_ostream"* @_ZNSo5flushEv(%"class.std::basic_ostream"* nonnull align 8 dereferenceable(8) %137)
  br label %139

139:                                              ; preds = %135, %29
  %140 = phi i32 [ %32, %29 ], [ 0, %135 ]
  %141 = call nonnull align 8 dereferenceable(16) %"class.std::basic_istream"* @_ZNSirsERi(%"class.std::basic_istream"* nonnull align 8 dereferenceable(16) @_ZSt3cin, i32* nonnull align 4 dereferenceable(4) %1)
  %142 = bitcast %"class.std::basic_istream"* %141 to i8**
  %143 = load i8*, i8** %142, align 8, !tbaa !5
  %144 = getelementptr i8, i8* %143, i64 -24
  %145 = bitcast i8* %144 to i64*
  %146 = load i64, i64* %145, align 8
  %147 = bitcast %"class.std::basic_istream"* %141 to i8*
  %148 = add nsw i64 %146, 32
  %149 = getelementptr inbounds i8, i8* %147, i64 %148
  %150 = bitcast i8* %149 to i32*
  %151 = load i32, i32* %150, align 8, !tbaa !8
  %152 = and i32 %151, 5
  %153 = icmp eq i32 %152, 0
  br i1 %153, label %18, label %154, !llvm.loop !31

154:                                              ; preds = %139, %0
  call void @llvm.lifetime.end.p0i8(i64 64, i8* nonnull %4) #8
  call void @llvm.lifetime.end.p0i8(i64 4, i8* nonnull %3) #8
  ret i32 0
}

; Function Attrs: argmemonly mustprogress nofree nosync nounwind willreturn
declare void @llvm.lifetime.start.p0i8(i64 immarg, i8* nocapture) #4

declare nonnull align 8 dereferenceable(16) %"class.std::basic_istream"* @_ZNSirsERi(%"class.std::basic_istream"* nonnull align 8 dereferenceable(16), i32* nonnull align 4 dereferenceable(4)) local_unnamed_addr #0

declare nonnull align 8 dereferenceable(8) %"class.std::basic_ostream"* @_ZNSolsEi(%"class.std::basic_ostream"* nonnull align 8 dereferenceable(8), i32) local_unnamed_addr #0

; Function Attrs: argmemonly mustprogress nofree nosync nounwind willreturn
declare void @llvm.lifetime.end.p0i8(i64 immarg, i8* nocapture) #4

declare nonnull align 8 dereferenceable(8) %"class.std::basic_ostream"* @_ZNSo3putEc(%"class.std::basic_ostream"* nonnull align 8 dereferenceable(8), i8 signext) local_unnamed_addr #0

declare nonnull align 8 dereferenceable(8) %"class.std::basic_ostream"* @_ZNSo5flushEv(%"class.std::basic_ostream"* nonnull align 8 dereferenceable(8)) local_unnamed_addr #0

; Function Attrs: noreturn
declare void @_ZSt16__throw_bad_castv() local_unnamed_addr #5

declare void @_ZNKSt5ctypeIcE13_M_widen_initEv(%"class.std::ctype"* nonnull align 8 dereferenceable(570)) local_unnamed_addr #0

; Function Attrs: sspstrong uwtable
define internal void @_GLOBAL__sub_I_1297.cpp() #6 section ".text.startup" {
  tail call void @_ZNSt8ios_base4InitC1Ev(%"class.std::ios_base::Init"* nonnull align 1 dereferenceable(1) @_ZStL8__ioinit)
  %1 = tail call i32 @__cxa_atexit(void (i8*)* bitcast (void (%"class.std::ios_base::Init"*)* @_ZNSt8ios_base4InitD1Ev to void (i8*)*), i8* getelementptr inbounds (%"class.std::ios_base::Init", %"class.std::ios_base::Init"* @_ZStL8__ioinit, i64 0, i32 0), i8* nonnull @__dso_handle) #8
  ret void
}

; Function Attrs: nofree nosync nounwind readnone willreturn
declare i32 @llvm.vector.reduce.add.v4i32(<4 x i32>) #7


!llvm.module.flags = !{!0, !1, !2, !3}
!llvm.ident = !{!4}

!0 = !{i32 1, !"wchar_size", i32 4}
!1 = !{i32 7, !"PIC Level", i32 2}
!2 = !{i32 7, !"PIE Level", i32 2}
!3 = !{i32 7, !"uwtable", i32 1}
!4 = !{!"clang version 13.0.0"}
!5 = !{!6, !6, i64 0}
!6 = !{!"vtable pointer", !7, i64 0}
!7 = !{!"Simple C++ TBAA"}
!8 = !{!9, !13, i64 32}
!9 = !{!"_ZTSSt8ios_base", !10, i64 8, !10, i64 16, !12, i64 24, !13, i64 28, !13, i64 32, !14, i64 40, !15, i64 48, !11, i64 64, !16, i64 192, !14, i64 200, !17, i64 208}
!10 = !{!"long", !11, i64 0}
!11 = !{!"omnipotent char", !7, i64 0}
!12 = !{!"_ZTSSt13_Ios_Fmtflags", !11, i64 0}
!13 = !{!"_ZTSSt12_Ios_Iostate", !11, i64 0}
!14 = !{!"any pointer", !11, i64 0}
!15 = !{!"_ZTSNSt8ios_base6_WordsE", !14, i64 0, !10, i64 8}
!16 = !{!"int", !11, i64 0}
!17 = !{!"_ZTSSt6locale", !14, i64 0}
!18 = !{!16, !16, i64 0}
!19 = distinct !{!19, !20}
!20 = !{!"llvm.loop.mustprogress"}
!21 = distinct !{!21, !20, !22}
!22 = !{!"llvm.loop.isvectorized", i32 1}
!23 = distinct !{!23, !20, !24, !22}
!24 = !{!"llvm.loop.unroll.runtime.disable"}
!25 = !{!26, !14, i64 240}
!26 = !{!"_ZTSSt9basic_iosIcSt11char_traitsIcEE", !14, i64 216, !11, i64 224, !27, i64 225, !14, i64 232, !14, i64 240, !14, i64 248, !14, i64 256}
!27 = !{!"bool", !11, i64 0}
!28 = !{!29, !11, i64 56}
!29 = !{!"_ZTSSt5ctypeIcE", !14, i64 16, !27, i64 24, !14, i64 32, !14, i64 40, !14, i64 48, !11, i64 56, !11, i64 57, !11, i64 313, !11, i64 569}
!30 = !{!11, !11, i64 0}
!31 = distinct !{!31, !20}
